target datalayout = "e-m:e-p270:32:32-p271:32:32-p272:64:64-i64:64-i128:128-f80:128-n8:16:32:64-S128"
target triple = "x86_64-pc-linux-gnu"

%struct.Abc_Ntk_t_ = type { i32, i32, ptr, ptr, ptr, ptr, ptr, ptr, ptr, ptr, ptr, ptr, ptr, [11 x i32], i32, i32, i32, i32, ptr, i32, ptr, ptr, i32, i32, i32, double, i32, %struct.Vec_Int_t_, ptr, ptr, ptr, ptr, ptr, float, i32, ptr, ptr, ptr, ptr, ptr, ptr, ptr, ptr, ptr, ptr, ptr, ptr, ptr, ptr, ptr, ptr, ptr, ptr, ptr, ptr, ptr, ptr }
%struct.Vec_Int_t_ = type { i32, i32, ptr }
%struct.Abc_Obj_t_ = type { ptr, ptr, i32, i32, %struct.Vec_Int_t_, %struct.Vec_Int_t_, %union.anon, %union.anon.0 }
%union.anon = type { ptr }
%union.anon.0 = type { ptr }
%struct.Vec_Ptr_t_ = type { i32, i32, ptr }

@.str = private unnamed_addr constant [88 x i8] c"Name \22%s\22 is not found among CO or node names (internal names often look as \22n<num>\22).\0A\00", align 1
@.str.1 = private unnamed_addr constant [57 x i8] c"The node \22%s\22 with ID %d is not in the current network.\0A\00", align 1
@.str.2 = private unnamed_addr constant [69 x i8] c"The node \22%s\22 with ID %d has been removed from the current network.\0A\00", align 1
@.str.3 = private unnamed_addr constant [34 x i8] c"Object with ID %d is not a node.\0A\00", align 1

; Function Attrs: inlinehint nounwind uwtable
define internal i32 @Vec_PtrSize(ptr noundef %0) #6 {
  %2 = alloca ptr, align 8
  store ptr %0, ptr %2, align 8, !tbaa !44
  %3 = load ptr, ptr %2, align 8, !tbaa !44
  %4 = getelementptr inbounds nuw %struct.Vec_Ptr_t_, ptr %3, i32 0, i32 1
  %5 = load i32, ptr %4, align 4, !tbaa !35
  ret i32 %5
}

; Function Attrs: inlinehint nounwind uwtable
define internal ptr @Vec_PtrEntry(ptr noundef %0, i32 noundef %1) #6 {
  %3 = alloca ptr, align 8
  %4 = alloca i32, align 4
  store ptr %0, ptr %3, align 8, !tbaa !44
  store i32 %1, ptr %4, align 4, !tbaa !8
  %5 = load ptr, ptr %3, align 8, !tbaa !44
  %6 = getelementptr inbounds nuw %struct.Vec_Ptr_t_, ptr %5, i32 0, i32 2
  %7 = load ptr, ptr %6, align 8, !tbaa !47
  %8 = load i32, ptr %4, align 4, !tbaa !8
  %9 = sext i32 %8 to i64
  %10 = getelementptr inbounds ptr, ptr %7, i64 %9
  %11 = load ptr, ptr %10, align 8, !tbaa !45
  ret ptr %11
}

; Function Attrs: inlinehint nounwind uwtable
define internal i32 @Abc_ObjIsNode(ptr noundef %0) #6 {
  %2 = alloca ptr, align 8
  store ptr %0, ptr %2, align 8, !tbaa !26
  %3 = load ptr, ptr %2, align 8, !tbaa !26
  %4 = getelementptr inbounds nuw %struct.Abc_Obj_t_, ptr %3, i32 0, i32 3
  %5 = load i32, ptr %4, align 4
  %6 = and i32 %5, 15
  %7 = icmp eq i32 %6, 7
  %8 = zext i1 %7 to i32
  ret i32 %8
}

; Function Attrs: inlinehint nounwind uwtable
define internal i32 @Abc_NtkObjNumMax(ptr noundef %0) #6 {
  %2 = alloca ptr, align 8
  store ptr %0, ptr %2, align 8, !tbaa !3
  %3 = load ptr, ptr %2, align 8, !tbaa !3
  %4 = getelementptr inbounds nuw %struct.Abc_Ntk_t_, ptr %3, i32 0, i32 5
  %5 = load ptr, ptr %4, align 8, !tbaa !34
  %6 = call i32 @Vec_PtrSize(ptr noundef %5)
  ret i32 %6
}

; Function Attrs: inlinehint nounwind willreturn memory(read) uwtable
define available_externally i32 @atoi(ptr noundef nonnull %0) #7 {
  %2 = alloca ptr, align 8
  store ptr %0, ptr %2, align 8, !tbaa !66
  %3 = load ptr, ptr %2, align 8, !tbaa !66
  %4 = call i64 @strtol(ptr noundef %3, ptr noundef null, i32 noundef 10) #9
  %5 = trunc i64 %4 to i32
  ret i32 %5
}

; Function Attrs: inlinehint nounwind uwtable
define internal ptr @Abc_ObjFanin0(ptr noundef %0) #6 {
  %2 = alloca ptr, align 8
  store ptr %0, ptr %2, align 8, !tbaa !26
  %3 = load ptr, ptr %2, align 8, !tbaa !26
  %4 = getelementptr inbounds nuw %struct.Abc_Obj_t_, ptr %3, i32 0, i32 0
  %5 = load ptr, ptr %4, align 8, !tbaa !28
  %6 = getelementptr inbounds nuw %struct.Abc_Ntk_t_, ptr %5, i32 0, i32 5
  %7 = load ptr, ptr %6, align 8, !tbaa !34
  %8 = getelementptr inbounds nuw %struct.Vec_Ptr_t_, ptr %7, i32 0, i32 2
  %9 = load ptr, ptr %8, align 8, !tbaa !47
  %10 = load ptr, ptr %2, align 8, !tbaa !26
  %11 = getelementptr inbounds nuw %struct.Abc_Obj_t_, ptr %10, i32 0, i32 4
  %12 = getelementptr inbounds nuw %struct.Vec_Int_t_, ptr %11, i32 0, i32 2
  %13 = load ptr, ptr %12, align 8, !tbaa !33
  %14 = getelementptr inbounds i32, ptr %13, i64 0
  %15 = load i32, ptr %14, align 4, !tbaa !8
  %16 = sext i32 %15 to i64
  %17 = getelementptr inbounds ptr, ptr %9, i64 %16
  %18 = load ptr, ptr %17, align 8, !tbaa !45
  ret ptr %18
}

; Function Attrs: inlinehint nounwind uwtable
define internal ptr @Abc_NtkObj(ptr noundef %0, i32 noundef %1) #6 {
  %3 = alloca ptr, align 8
  %4 = alloca i32, align 4
  store ptr %0, ptr %3, align 8, !tbaa !3
  store i32 %1, ptr %4, align 4, !tbaa !8
  %5 = load ptr, ptr %3, align 8, !tbaa !3
  %6 = getelementptr inbounds nuw %struct.Abc_Ntk_t_, ptr %5, i32 0, i32 5
  %7 = load ptr, ptr %6, align 8, !tbaa !34
  %8 = load i32, ptr %4, align 4, !tbaa !8
  %9 = call ptr @Vec_PtrEntry(ptr noundef %7, i32 noundef %8)
  ret ptr %9
}

; Function Attrs: nounwind uwtable
define ptr @Abc_NtkFindNode(ptr noundef %0, ptr noundef %1) #0 {
  %3 = alloca ptr, align 8
  %4 = alloca ptr, align 8
  %5 = alloca ptr, align 8
  %6 = alloca ptr, align 8
  %7 = alloca i32, align 4
  %8 = alloca i32, align 4
  store ptr %0, ptr %4, align 8, !tbaa !3
  store ptr %1, ptr %5, align 8, !tbaa !66
  call void @llvm.lifetime.start.p0(i64 8, ptr %6) #9
  call void @llvm.lifetime.start.p0(i64 4, ptr %7) #9
  %9 = load ptr, ptr %4, align 8, !tbaa !3
  %10 = getelementptr inbounds nuw %struct.Abc_Ntk_t_, ptr %9, i32 0, i32 4
  %11 = load ptr, ptr %10, align 8, !tbaa !48
  %12 = load ptr, ptr %5, align 8, !tbaa !66
  %13 = call i32 @Nm_ManFindIdByName(ptr noundef %11, ptr noundef %12, i32 noundef 3)
  store i32 %13, ptr %7, align 4, !tbaa !8
  %14 = load i32, ptr %7, align 4, !tbaa !8
  %15 = icmp sge i32 %14, 0
  br i1 %15, label %16, label %21

16:                                               ; preds = %2
  %17 = load ptr, ptr %4, align 8, !tbaa !3
  %18 = load i32, ptr %7, align 4, !tbaa !8
  %19 = call ptr @Abc_NtkObj(ptr noundef %17, i32 noundef %18)
  %20 = call ptr @Abc_ObjFanin0(ptr noundef %19)
  store ptr %20, ptr %3, align 8
  store i32 1, ptr %8, align 4
  br label %89

21:                                               ; preds = %2
  %22 = load ptr, ptr %4, align 8, !tbaa !3
  %23 = getelementptr inbounds nuw %struct.Abc_Ntk_t_, ptr %22, i32 0, i32 4
  %24 = load ptr, ptr %23, align 8, !tbaa !48
  %25 = load ptr, ptr %5, align 8, !tbaa !66
  %26 = call i32 @Nm_ManFindIdByName(ptr noundef %24, ptr noundef %25, i32 noundef 4)
  store i32 %26, ptr %7, align 4, !tbaa !8
  %27 = load i32, ptr %7, align 4, !tbaa !8
  %28 = icmp sge i32 %27, 0
  br i1 %28, label %29, label %34

29:                                               ; preds = %21
  %30 = load ptr, ptr %4, align 8, !tbaa !3
  %31 = load i32, ptr %7, align 4, !tbaa !8
  %32 = call ptr @Abc_NtkObj(ptr noundef %30, i32 noundef %31)
  %33 = call ptr @Abc_ObjFanin0(ptr noundef %32)
  store ptr %33, ptr %3, align 8
  store i32 1, ptr %8, align 4
  br label %89

34:                                               ; preds = %21
  %35 = load ptr, ptr %4, align 8, !tbaa !3
  %36 = getelementptr inbounds nuw %struct.Abc_Ntk_t_, ptr %35, i32 0, i32 4
  %37 = load ptr, ptr %36, align 8, !tbaa !48
  %38 = load ptr, ptr %5, align 8, !tbaa !66
  %39 = call i32 @Nm_ManFindIdByName(ptr noundef %37, ptr noundef %38, i32 noundef 7)
  store i32 %39, ptr %7, align 4, !tbaa !8
  %40 = load i32, ptr %7, align 4, !tbaa !8
  %41 = icmp sge i32 %40, 0
  br i1 %41, label %42, label %46

42:                                               ; preds = %34
  %43 = load ptr, ptr %4, align 8, !tbaa !3
  %44 = load i32, ptr %7, align 4, !tbaa !8
  %45 = call ptr @Abc_NtkObj(ptr noundef %43, i32 noundef %44)
  store ptr %45, ptr %3, align 8
  store i32 1, ptr %8, align 4
  br label %89

46:                                               ; preds = %34
  %47 = load ptr, ptr %5, align 8, !tbaa !66
  %48 = getelementptr inbounds i8, ptr %47, i64 0
  %49 = load i8, ptr %48, align 1, !tbaa !42
  %50 = sext i8 %49 to i32
  %51 = icmp ne i32 %50, 110
  br i1 %51, label %52, label %55

52:                                               ; preds = %46
  %53 = load ptr, ptr %5, align 8, !tbaa !66
  %54 = call i32 (ptr, ...) @printf(ptr noundef @.str, ptr noundef %53)
  store ptr null, ptr %3, align 8
  store i32 1, ptr %8, align 4
  br label %89

55:                                               ; preds = %46
  %56 = load ptr, ptr %5, align 8, !tbaa !66
  %57 = getelementptr inbounds i8, ptr %56, i64 1
  %58 = call i32 @atoi(ptr noundef %57) #11
  store i32 %58, ptr %7, align 4, !tbaa !8
  %59 = load i32, ptr %7, align 4, !tbaa !8
  %60 = icmp slt i32 %59, 0
  br i1 %60, label %66, label %61

61:                                               ; preds = %55
  %62 = load i32, ptr %7, align 4, !tbaa !8
  %63 = load ptr, ptr %4, align 8, !tbaa !3
  %64 = call i32 @Abc_NtkObjNumMax(ptr noundef %63)
  %65 = icmp sge i32 %62, %64
  br i1 %65, label %66, label %70

66:                                               ; preds = %61, %55
  %67 = load ptr, ptr %5, align 8, !tbaa !66
  %68 = load i32, ptr %7, align 4, !tbaa !8
  %69 = call i32 (ptr, ...) @printf(ptr noundef @.str.1, ptr noundef %67, i32 noundef %68)
  store ptr null, ptr %3, align 8
  store i32 1, ptr %8, align 4
  br label %89

70:                                               ; preds = %61
  %71 = load ptr, ptr %4, align 8, !tbaa !3
  %72 = load i32, ptr %7, align 4, !tbaa !8
  %73 = call ptr @Abc_NtkObj(ptr noundef %71, i32 noundef %72)
  store ptr %73, ptr %6, align 8, !tbaa !26
  %74 = load ptr, ptr %6, align 8, !tbaa !26
  %75 = icmp eq ptr %74, null
  br i1 %75, label %76, label %80

76:                                               ; preds = %70
  %77 = load ptr, ptr %5, align 8, !tbaa !66
  %78 = load i32, ptr %7, align 4, !tbaa !8
  %79 = call i32 (ptr, ...) @printf(ptr noundef @.str.2, ptr noundef %77, i32 noundef %78)
  store ptr null, ptr %3, align 8
  store i32 1, ptr %8, align 4
  br label %89

80:                                               ; preds = %70
  %81 = load ptr, ptr %6, align 8, !tbaa !26
  %82 = call i32 @Abc_ObjIsNode(ptr noundef %81)
  %83 = icmp ne i32 %82, 0
  br i1 %83, label %87, label %84

84:                                               ; preds = %80
  %85 = load i32, ptr %7, align 4, !tbaa !8
  %86 = call i32 (ptr, ...) @printf(ptr noundef @.str.3, i32 noundef %85)
  store ptr null, ptr %3, align 8
  store i32 1, ptr %8, align 4
  br label %89

87:                                               ; preds = %80
  %88 = load ptr, ptr %6, align 8, !tbaa !26
  store ptr %88, ptr %3, align 8
  store i32 1, ptr %8, align 4
  br label %89

89:                                               ; preds = %87, %84, %76, %66, %52, %42, %29, %16
  call void @llvm.lifetime.end.p0(i64 4, ptr %7) #9
  call void @llvm.lifetime.end.p0(i64 8, ptr %6) #9
  %90 = load ptr, ptr %3, align 8
  ret ptr %90
}