; Function Attrs: nounwind uwtable
define ptr @Abc_NtkFindNode(ptr noundef readonly captures(none) %0, ptr noundef %1) local_unnamed_addr #0 {
  %3 = getelementptr inbounds nuw i8, ptr %0, i64 24
  %4 = load ptr, ptr %3, align 8, !tbaa !45
  %5 = tail call i32 @Nm_ManFindIdByName(ptr noundef %4, ptr noundef %1, i32 noundef 3) #10
  %6 = icmp sgt i32 %5, -1
  br i1 %6, label %7, label %19

7:                                                ; preds = %2
  %8 = getelementptr i8, ptr %0, i64 32
  %.val42 = load ptr, ptr %8, align 8, !tbaa !31
  %9 = getelementptr i8, ptr %.val42, i64 8
  %.val42.val = load ptr, ptr %9, align 8, !tbaa !35
  %10 = zext nneg i32 %5 to i64
  %11 = getelementptr inbounds nuw ptr, ptr %.val42.val, i64 %10
  %12 = load ptr, ptr %11, align 8, !tbaa !36
  %.val39 = load ptr, ptr %12, align 8, !tbaa !24
  %13 = getelementptr i8, ptr %12, i64 32
  %.val40 = load ptr, ptr %13, align 8, !tbaa !30
  %14 = getelementptr i8, ptr %.val39, i64 32
  %.val39.val = load ptr, ptr %14, align 8, !tbaa !31
  %.val40.val = load i32, ptr %.val40, align 4, !tbaa !37
  %15 = getelementptr i8, ptr %.val39.val, i64 8
  %.val39.val.val = load ptr, ptr %15, align 8, !tbaa !35
  %16 = sext i32 %.val40.val to i64
  %17 = getelementptr inbounds ptr, ptr %.val39.val.val, i64 %16
  %18 = load ptr, ptr %17, align 8, !tbaa !36
  br label %72

19:                                               ; preds = %2
  %20 = load ptr, ptr %3, align 8, !tbaa !45
  %21 = tail call i32 @Nm_ManFindIdByName(ptr noundef %20, ptr noundef %1, i32 noundef 4) #10
  %22 = icmp sgt i32 %21, -1
  br i1 %22, label %23, label %35

23:                                               ; preds = %19
  %24 = getelementptr i8, ptr %0, i64 32
  %.val43 = load ptr, ptr %24, align 8, !tbaa !31
  %25 = getelementptr i8, ptr %.val43, i64 8
  %.val43.val = load ptr, ptr %25, align 8, !tbaa !35
  %26 = zext nneg i32 %21 to i64
  %27 = getelementptr inbounds nuw ptr, ptr %.val43.val, i64 %26
  %28 = load ptr, ptr %27, align 8, !tbaa !36
  %.val = load ptr, ptr %28, align 8, !tbaa !24
  %29 = getelementptr i8, ptr %28, i64 32
  %.val38 = load ptr, ptr %29, align 8, !tbaa !30
  %30 = getelementptr i8, ptr %.val, i64 32
  %.val.val = load ptr, ptr %30, align 8, !tbaa !31
  %.val38.val = load i32, ptr %.val38, align 4, !tbaa !37
  %31 = getelementptr i8, ptr %.val.val, i64 8
  %.val.val.val = load ptr, ptr %31, align 8, !tbaa !35
  %32 = sext i32 %.val38.val to i64
  %33 = getelementptr inbounds ptr, ptr %.val.val.val, i64 %32
  %34 = load ptr, ptr %33, align 8, !tbaa !36
  br label %72

35:                                               ; preds = %19
  %36 = load ptr, ptr %3, align 8, !tbaa !45
  %37 = tail call i32 @Nm_ManFindIdByName(ptr noundef %36, ptr noundef %1, i32 noundef 7) #10
  %38 = icmp sgt i32 %37, -1
  br i1 %38, label %39, label %45

39:                                               ; preds = %35
  %40 = getelementptr i8, ptr %0, i64 32
  %.val44 = load ptr, ptr %40, align 8, !tbaa !31
  %41 = getelementptr i8, ptr %.val44, i64 8
  %.val44.val = load ptr, ptr %41, align 8, !tbaa !35
  %42 = zext nneg i32 %37 to i64
  %43 = getelementptr inbounds nuw ptr, ptr %.val44.val, i64 %42
  %44 = load ptr, ptr %43, align 8, !tbaa !36
  br label %72

45:                                               ; preds = %35
  %46 = load i8, ptr %1, align 1, !tbaa !43
  %.not = icmp eq i8 %46, 110
  br i1 %.not, label %49, label %47

47:                                               ; preds = %45
  %48 = tail call i32 (ptr, ...) @printf(ptr noundef nonnull dereferenceable(1) @.str, ptr noundef nonnull %1)
  br label %72

49:                                               ; preds = %45
  %50 = getelementptr inbounds nuw i8, ptr %1, i64 1
  %51 = tail call i64 @strtol(ptr noundef nonnull captures(none) %50, ptr noundef null, i32 noundef 10) #10
  %52 = trunc i64 %51 to i32
  %53 = icmp slt i32 %52, 0
  br i1 %53, label %57, label %54

54:                                               ; preds = %49
  %55 = getelementptr i8, ptr %0, i64 32
  %.val46 = load ptr, ptr %55, align 8, !tbaa !31
  %56 = getelementptr i8, ptr %.val46, i64 4
  %.val46.val = load i32, ptr %56, align 4, !tbaa !32
  %.not36 = icmp sgt i32 %.val46.val, %52
  br i1 %.not36, label %59, label %57

57:                                               ; preds = %54, %49
  %58 = tail call i32 (ptr, ...) @printf(ptr noundef nonnull dereferenceable(1) @.str.1, ptr noundef nonnull %1, i32 noundef %52)
  br label %72

59:                                               ; preds = %54
  %60 = getelementptr i8, ptr %.val46, i64 8
  %.val45.val = load ptr, ptr %60, align 8, !tbaa !35
  %61 = and i64 %51, 2147483647
  %62 = getelementptr inbounds nuw ptr, ptr %.val45.val, i64 %61
  %63 = load ptr, ptr %62, align 8, !tbaa !36
  %64 = icmp eq ptr %63, null
  br i1 %64, label %65, label %67

65:                                               ; preds = %59
  %66 = tail call i32 (ptr, ...) @printf(ptr noundef nonnull dereferenceable(1) @.str.2, ptr noundef nonnull %1, i32 noundef %52)
  br label %72

67:                                               ; preds = %59
  %68 = getelementptr i8, ptr %63, i64 20
  %.val41 = load i32, ptr %68, align 4
  %69 = and i32 %.val41, 15
  %.not47 = icmp eq i32 %69, 7
  br i1 %.not47, label %72, label %70

70:                                               ; preds = %67
  %71 = tail call i32 (ptr, ...) @printf(ptr noundef nonnull dereferenceable(1) @.str.3, i32 noundef %52)
  br label %72

72:                                               ; preds = %67, %70, %65, %57, %47, %39, %23, %7
  %.0 = phi ptr [ %18, %7 ], [ %34, %23 ], [ %44, %39 ], [ null, %47 ], [ null, %57 ], [ null, %65 ], [ null, %70 ], [ %63, %67 ]
  ret ptr %.0
}